(dp0
Vraining
p1
I2
sVall
p2
I3
sVwinnings
p3
I4
sVmanaged
p4
I19
sVsaying
p5
I656
sVdance
p6
I7
sVskip
p7
I8
sVwhen
p8
I1226
sVresults
p9
I11
sVlaura
p10
I13
sVmile
p11
I15
sVice
p12
I1064
sVgrateful
p13
I17
sVgo
p14
I18
sVchair
p15
I20
sVfinish
p16
I1229
sVmarching
p17
I23
sVhearing
p18
I1096
sV 
p19
I870
sVapartment
p20
I26
sVbut
p21
I1171
sVty
p22
I27
sVswam
p23
I28
sVelizabeth
p24
I559
sVfather
p25
I30
sVyoung
p26
I31
sVherbs
p27
I1261
sVlaughing
p28
I1033
sVto
p29
I34
sVfinally
p30
I35
sVbike
p31
I36
sVwants
p32
I844
sVstarter
p33
I37
sVmarks
p34
I38
sVsiblings
p35
I40
sVdisapproved
p36
I41
sVenjoying
p37
I42
sVhideous
p38
I43
sVstarted
p39
I1228
sVcustomer
p40
I45
sVfamily
p41
I981
sVwoman
p42
I46
sVwished
p43
I47
sVgarden
p44
I266
sVsitting
p45
I49
sVvery
p46
I50
sVhear
p47
I1174
sVblanket
p48
I51
sVgina
p49
I52
sVsufficient
p50
I1237
sVbunnies
p51
I54
sVevery
p52
I55
sVgot
p53
I450
sVcook
p54
I58
sVjoin
p55
I59
sVdrinking
p56
I60
sVcontinued
p57
I61
sVminute
p58
I62
sVelated
p59
I64
sVschool
p60
I65
sVyanice
p61
I1071
sVparrot
p62
I67
sVdid
p63
I68
sVdie
p64
I69
sVmarry
p65
I70
sVaccidentally
p66
I71
sVgrandfather
p67
I72
sVlarge
p68
I73
sVsand
p69
I74
sVhighway
p70
I454
sVcar
p71
I231
sVsmall
p72
I77
sVlisa
p73
I78
sVspent
p74
I949
sVdip
p75
I79
sVheading
p76
I80
sVenjoy
p77
I491
sVsomeday
p78
I82
sVdoorbell
p79
I1006
sVtalked
p80
I83
sVsays
p81
I84
sVten
p82
I85
sVfridge
p83
I1007
sVbacon
p84
I88
sVtodd
p85
I1203
sVpast
p86
I89
sVsecond
p87
I91
sVvideo
p88
I93
sVworn
p89
I94
sVpicked
p90
I95
sVrun
p91
I1078
sVfunctioning
p92
I98
sVsnuggled
p93
I99
sVjessica
p94
I457
sVblue
p95
I101
sVn't
p96
I872
sVwhat
p97
I103
sVadds
p98
I104
sVpuppy
p99
I1236
sVjunior
p100
I1179
sVsoup
p101
I105
sVsun
p102
I106
sVwrecked
p103
I107
sVlead
p104
I1191
sVmedal
p105
I1147
sVlocker
p106
I109
sVenjoyed
p107
I677
sVcrush
p108
I112
sVpaying
p109
I867
sVwaiting
p110
I114
sVtears
p111
I690
sVnearest
p112
I1192
sVgoes
p113
I116
sVfrank
p114
I117
sVnew
p115
I118
sVlearned
p116
I119
sVground
p117
I679
sVever
p118
I120
sVbird
p119
I121
sVfilled
p120
I122
sVtold
p121
I123
sVscenery
p122
I124
sVlutheran
p123
I125
sVafterward
p124
I470
sVfull
p125
I127
sVunsure
p126
I128
sVmechanic
p127
I129
sVleg
p128
I130
sVgathered
p129
I131
sVnever
p130
I132
sVpunch
p131
I773
sVhundreds
p132
I134
sVhours
p133
I135
sVmet
p134
I136
sVfeeding
p135
I137
sVfree
p136
I462
sVhers
p137
I139
sVpath
p138
I140
sValong
p139
I141
sVimplanted
p140
I142
sVteacher
p141
I143
sVchange
p142
I144
sVwait
p143
I145
sVboy
p144
I146
sVgreat
p145
I147
sVkids
p146
I148
sVahead
p147
I149
sVtoast
p148
I680
sVchant
p149
I152
sV31
p150
I153
sVallows
p151
I154
sVbow
p152
I155
sVjogging
p153
I995
sVdescended
p154
I158
sVpick
p155
I159
sVusually
p156
I160
sVbob
p157
I161
sVsound
p158
I1169
sVmakes
p159
I162
sVjoshua
p160
I163
sVjumped
p161
I649
sVnamed
p162
I165
sVcup
p163
I983
sVlove
p164
I166
sVthankfully
p165
I167
sVextra
p166
I24
sVsuddenly
p167
I169
sVpressed
p168
I875
sVterrified
p169
I1090
sVbrought
p170
I172
sVgraduated
p171
I422
sVfavorite
p172
I1106
sVbath
p173
I1200
sVthought
p174
I952
sVgreg
p175
I817
sVtools
p176
I175
sVsarah
p177
I177
sVuse
p178
I178
sVcheered
p179
I179
sVfrom
p180
I180
sVtakes
p181
I181
sVworking
p182
I182
sViced
p183
I183
sVpositive
p184
I184
sVhospital
p185
I185
sVhungry
p186
I186
sVvisit
p187
I187
sVcharge
p188
I170
sVnext
p189
I189
sVfew
p190
I190
sVcall
p191
I192
sVthen
p192
I887
sVthemselves
p193
I195
sVtype
p194
I197
sVtell
p195
I198
sVtoday
p196
I199
sVmore
p197
I200
sVson
p198
I1130
sVdoor
p199
I202
sVporch
p200
I203
sVsuccessful
p201
I204
sVcompany
p202
I206
sVunder
p203
I56
sVfeared
p204
I748
sVsister
p205
I1098
sVclue
p206
I211
sVphone
p207
I212
sVlanded
p208
I213
sVwarm
p209
I214
sVbeers
p210
I215
sVfar
p211
I1273
sVbroke
p212
I217
sVbaby
p213
I218
sVhold
p214
I220
sVglad
p215
I221
sVwomen
p216
I157
sVme
p217
I223
sVhigh
p218
I258
sVaccount
p219
I225
sVthermos
p220
I226
sVword
p221
I227
sVroom
p222
I63
sVhour
p223
I229
sVthis
p224
I230
sVscience
p225
I76
sVride
p226
I232
sVwork
p227
I233
sVfast
p228
I1151
sVroof
p229
I235
sVcat
p230
I236
sVmovies
p231
I237
sVmall
p232
I238
sVthin
p233
I86
sVmorgan
p234
I240
sVmr
p235
I241
sVbelieved
p236
I242
sVmaking
p237
I243
sVfed
p238
I1210
sVmy
p239
I244
sVspilled
p240
I1104
sVcomplain
p241
I988
sVdropped
p242
I96
sVbeautiful
p243
I164
sVheart
p244
I168
sVshark
p245
I250
sVbent
p246
I251
sVsnacks
p247
I252
sVpie
p248
I1205
sVdistracted
p249
I253
sVchip
p250
I254
sVin
p251
I894
sVrode
p252
I256
sVdui
p253
I1079
sVfooting
p254
I1062
sVtopic
p255
I224
sVheard
p256
I259
sV2nd
p257
I1016
sVhis
p258
I700
sVsomething
p259
I260
sVgas
p260
I1245
sVspa
p261
I261
sVsteward
p262
I479
sVhamburgers
p263
I265
sVrisk
p264
I973
sV!
p265
I267
sVhuge
p266
I268
sVend
p267
I269
sVgoal
p268
I270
sVsit
p269
I271
sVwondered
p270
I1264
sVtravel
p271
I272
sVbreaking
p272
I337
sVstayed
p273
I275
sVmachine
p274
I277
sVhow
p275
I278
sVhot
p276
I279
sVhop
p277
I280
sVelephant
p278
I281
sVtile
p279
I282
sVplace
p280
I482
sVbeach
p281
I285
sVtinfoil
p282
I287
sVgash
p283
I288
sVdriving
p284
I1047
sVtried
p285
I290
sVrude
p286
I291
sVfarm
p287
I292
sVsunny
p288
I293
sVcoffeeshop
p289
I294
sVafter
p290
I295
sVspot
p291
I296
sVsneak
p292
I297
sVdiagram
p293
I299
sVcrashed
p294
I300
sVmembership
p295
I301
sVbirthday
p296
I302
sVopening
p297
I768
sVcoming
p298
I497
sVdate
p299
I307
sVcourt
p300
I308
sVreupholstered
p301
I708
sVguys
p302
I309
sVgrow
p303
I310
sVlifting
p304
I311
sVman
p305
I312
sVa
p306
I313
sVrealized
p307
I314
sVshort
p308
I315
sVattempt
p309
I316
sVmangy
p310
I317
sVerrands
p311
I1128
sVsusan
p312
I318
sVstation
p313
I1074
sVcounter
p314
I319
sVexterminator
p315
I320
sVtrevor
p316
I322
sVlike
p317
I1023
sVshore
p318
I324
sVcourage
p319
I711
sVso
p320
I326
sVwaited
p321
I489
sVpay
p322
I905
sVtall
p323
I329
sVegg
p324
I332
sVplaying
p325
I646
sVtalk
p326
I334
sVanna
p327
I1073
sVreplied
p328
I335
sVcute
p329
I336
sVsix
p330
I273
sVshoes
p331
I151
sVover
p332
I341
sVmove
p333
I342
sVsoon
p334
I344
sVended
p335
I345
sVduring
p336
I714
sValready
p337
I492
sVthrough
p338
I347
sVsame
p339
I910
sVoven
p340
I349
sVcuts
p341
I350
sVcold
p342
I351
sVstill
p343
I352
sVticket
p344
I353
sVbunch
p345
I354
sVmessed
p346
I355
sVaccepted
p347
I979
sVpolice
p348
I357
sVinternationally
p349
I358
sVclashed
p350
I359
sVfix
p351
I360
sVremembered
p352
I1080
sV,
p353
I361
sVactually
p354
I362
sVbetter
p355
I363
sVwilling
p356
I364
sVcovered
p357
I365
sVweeks
p358
I366
sVsoccer
p359
I367
sVsauce
p360
I368
sVeasier
p361
I369
sVhaven't
p362
I370
sVhappened
p363
I371
sVdad
p364
I372
sVeventually
p365
I373
sVthem
p366
I374
sVsomeone
p367
I210
sVanimal
p368
I376
sVviews
p369
I377
sVfood
p370
I378
sVpropose
p371
I379
sVdan
p372
I380
sVmaterial
p373
I381
sVcooks
p374
I382
sVflew
p375
I383
sVanticipated
p376
I384
sVbreak
p377
I385
sVlunch
p378
I386
sVgirlfriend
p379
I1213
sVolivia
p380
I387
sVthey
p381
I388
sVhands
p382
I9
sVnot
p383
I390
sVnow
p384
I391
sVday
p385
I393
sVbank
p386
I394
sVdown
p387
I1131
sVshouted
p388
I397
sVmeat
p389
I398
sVkept
p390
I943
sVjames
p391
I32
sVartist
p392
I717
sVchuck
p393
I403
sVbilly
p394
I404
sVgood
p395
I405
sVweather
p396
I1132
sVstopped
p397
I406
sVtrap
p398
I407
sVrock
p399
I356
sVfound
p400
I410
sVwent
p401
I411
sVmeal
p402
I412
sVmean
p403
I413
sVunwind
p404
I414
sVeveryone
p405
I415
sVlogs
p406
I416
sVbursting
p407
I417
sVbadly
p408
I418
sVdoing
p409
I419
sVhouse
p410
I420
sVhard
p411
I421
sVhim
p412
I715
sVjoined
p413
I856
sVline
p414
I1177
sVball
p415
I924
sVgave
p416
I1001
sVforgot
p417
I426
sVscratching
p418
I427
sVour
p419
I428
sVgirl
p420
I429
sVmorning
p421
I721
sVsalesman
p422
I751
sVsaturday
p423
I432
sVsnorkeling
p424
I433
sVout
p425
I434
sVliving
p426
I436
sVrex
p427
I437
sVopened
p428
I439
sV'
p429
I440
sVwalked
p430
I1270
sVinch
p431
I1202
sVsince
p432
I442
sVwashed
p433
I443
sVlooking
p434
I445
sVmess
p435
I735
sVencourage
p436
I447
sVpriest
p437
I723
sVhill
p438
I449
sVsurprise
p439
I57
sVred
p440
I75
sVfun
p441
I877
sVrehearsed
p442
I456
sVbully
p443
I100
sV1987
p444
I1141
sVcars
p445
I303
sVturned
p446
I853
sVteam
p447
I460
sVlittle
p448
I516
sVcart
p449
I138
sVquite
p450
I463
sVcompletely
p451
I464
sVjill
p452
I465
sVcalifornia
p453
I466
sVask
p454
I173
sVwanted
p455
I468
sVcraving
p456
I455
sVfabric
p457
I1144
sVaisle
p458
I471
sVate
p459
I472
sVauditioned
p460
I473
sVdeer
p461
I1204
sVagree
p462
I1199
sVphrases
p463
I425
sVcould
p464
I476
sVtasting
p465
I1146
sVput
p466
I467
sVmoment
p467
I934
sVkeep
p468
I264
sVthing
p469
I480
sVlabored
p470
I481
sVexpecting
p471
I283
sVcompeted
p472
I483
sVwon
p473
I759
sVbroken
p474
I1086
sVonto
p475
I487
sVcaught
p476
I520
sVsouth
p477
I327
sVfirst
p478
I490
sVflood
p479
I1186
sVflying
p480
I205
sVunhealthy
p481
I493
sVshopper
p482
I494
sVfeel
p483
I495
sVchased
p484
I521
sVdiana
p485
I1154
sValleyway
p486
I1091
sVnumber
p487
I498
sVone
p488
I499
sVfeet
p489
I500
sVwash
p490
I501
sVbeethoven
p491
I734
sVdone
p492
I681
sVcade
p493
I503
sVdelicious
p494
I505
sVfees
p495
I53
sVowner
p496
I507
sVrats
p497
I508
sVsounds
p498
I509
sVdrove
p499
I510
sVelectronic
p500
I511
sVtomorrow
p501
I512
sVhood
p502
I513
sV<UNK>
p503
I1
sVbahamas
p504
I523
sVgiven
p505
I461
sV"
p506
I517
sVneeded
p507
I524
sVdivorce
p508
I519
sVoverdraft
p509
I488
sVgirls
p510
I496
sVelevator
p511
I522
sVanyone
p512
I515
sVtheir
p513
I518
sVleash
p514
I525
sVwonderful
p515
I526
sVpour
p516
I1231
sVtoo
p517
I527
sVpassed
p518
I528
sVtime
p519
I1272
sVoverweight
p520
I530
sVjohn
p521
I531
sVjen
p522
I532
sVfinal
p523
I562
sVfriend
p524
I534
sVeyes
p525
I535
sVselling
p526
I536
sVlot
p527
I1157
sVthat
p528
I538
sVhappily
p529
I539
sVexploded
p530
I540
sVgym
p531
I541
sVpark
p532
I542
sVshortcomings
p533
I14
sVmassages
p534
I544
sVluckily
p535
I545
sVpart
p536
I546
sVdoctors
p537
I547
sVoff
p538
I549
sVherself
p539
I550
sVthan
p540
I551
sVboyfriend
p541
I552
sVpetrified
p542
I39
sVkind
p543
I554
sVpolarized
p544
I234
sVben
p545
I556
sVshowed
p546
I557
sVrival
p547
I444
sVnormal
p548
I1232
sVslowed
p549
I560
sVshower
p550
I563
sVfuture
p551
I564
sVmarriage
p552
I565
sVstore
p553
I566
sVwere
p554
I568
sVfeeling
p555
I569
sVand
p556
I572
sVdeciding
p557
I573
sVmotivation
p558
I574
sVsees
p559
I575
sVconfessional
p560
I576
sVran
p561
I577
sVann
p562
I578
sVconfessed
p563
I579
sVages
p564
I580
sVvoices
p565
I581
sVtalking
p566
I582
sVsay
p567
I583
sVbuy
p568
I1166
sVmary
p569
I841
sVhave
p570
I585
sVneed
p571
I586
sVseen
p572
I587
sVsells
p573
I588
sVobviously
p574
I951
sVmint
p575
I401
sVany
p576
I591
sVsat
p577
I592
sVcoach
p578
I593
sVcatholic
p579
I594
sVbake
p580
I595
sVdishes
p581
I596
sVmia
p582
I597
sVself
p583
I598
sVcave
p584
I599
sV-
p585
I600
sVeagerly
p586
I601
sVzoo
p587
I602
sVpurchases
p588
I249
sVequipment
p589
I25
sVwithout
p590
I953
sVlip
p591
I606
sVtake
p592
I441
sVwhich
p593
I608
sVbus
p594
I257
sVfinding
p595
I610
sVtruck
p596
I5
sVpranks
p597
I115
sVrides
p598
I613
sVdread
p599
I615
sVeven
p600
I616
sVplay
p601
I617
sVtowards
p602
I618
sVpain
p603
I619
sVthough
p604
I620
sVintervened
p605
I621
sVeggs
p606
I622
sVwho
p607
I623
sVeruption
p608
I624
sVpaid
p609
I87
sVtook
p610
I543
sVreact
p611
I626
sVaudition
p612
I627
sVplan
p613
I629
sVgets
p614
I1258
sVnothing
p615
I630
sVhide
p616
I631
sVcontain
p617
I570
sVsally
p618
I633
sVpayment
p619
I634
sVlawn
p620
I637
sVbounced
p621
I958
sVrefreshing
p622
I639
sVsaddest
p623
I641
sVdream
p624
I642
sVproud
p625
I643
sVupset
p626
I644
sVdrive
p627
I263
sVface
p628
I1216
sVlooked
p629
I647
sVhad
p630
I986
sVsaw
p631
I590
sVeverything
p632
I1066
sVleft
p633
I960
sVtypically
p634
I651
sVannoyed
p635
I652
sVcame
p636
I653
sVlaws
p637
I654
sVslope
p638
I655
sVimpression
p639
I6
sVwalking
p640
I657
sVgolf
p641
I659
sVbrenda
p642
I661
sVshow
p643
I662
sVreclined
p644
I663
sVtext
p645
I664
sVagreed
p646
I665
sVfond
p647
I110
sVdemurred
p648
I667
sVputt
p649
I828
sVdiscovered
p650
I669
sVbring
p651
I670
sVbright
p652
I671
sVplanning
p653
I672
sVwoodworker
p654
I673
sVsneaking
p655
I90
sVchicken
p656
I908
sV2013
p657
I805
sVfind
p658
I111
sVrecliner
p659
I678
sVhelp
p660
I339
sVlessons
p661
I48
sVtowed
p662
I1029
sVcabin
p663
I682
sVgrabbed
p664
I1140
sVjust
p665
I965
sVtire
p666
I685
sVnervous
p667
I686
sVoutside
p668
I758
sVshould
p669
I174
sVonly
p670
I21
sVgoing
p671
I691
sV18
p672
I725
sVseek
p673
I1027
sVmoney
p674
I967
sVwooden
p675
I693
sVwatching
p676
I703
sVhe
p677
I1181
sVlocal
p678
I695
sVhope
p679
I696
sVloved
p680
I697
sVregularly
p681
I698
sVdo
p682
I699
sVhaircut
p683
I435
sVhit
p684
I262
sVlistened
p685
I702
sVget
p686
I451
sVchicago
p687
I704
sVthere
p688
I1149
sVflirting
p689
I705
sVwatch
p690
I29
sVgrocery
p691
I707
sVsatisfied
p692
I431
sVpocket
p693
I709
sVfamous
p694
I710
sVones
p695
I325
sVninth
p696
I712
sVsupplies
p697
I713
sV2
p698
I636
sVnurse
p699
I548
sVsettings
p700
I402
sVconvinced
p701
I718
sVmarried
p702
I719
sVstranger
p703
I720
sVworried
p704
I430
sVbad
p705
I722
sVstuff
p706
I448
sVshe
p707
I724
sVwarranty
p708
I1120
sVdouble
p709
I558
sVfinishing
p710
I726
sVfixed
p711
I727
sVwhere
p712
I728
sV16th
p713
I729
sVhusband
p714
I730
sVview
p715
I486
sVheaded
p716
I808
sVblew
p717
I733
sVset
p718
I502
sVmiserably
p719
I736
sVframe
p720
I738
sVhasn't
p721
I859
sVsee
p722
I742
sVdecided
p723
I743
sVcollege
p724
I744
sVare
p725
I571
sVanything
p726
I1100
sVpacked
p727
I561
sVencouraged
p728
I343
sVknocked
p729
I749
sVsaid
p730
I750
sVvisiting
p731
I753
sVlots
p732
I754
sVpictures
p733
I191
sVleftovers
p734
I458
sVmissing
p735
I757
sVenough
p736
I687
sVdetermined
p737
I676
sVfinger
p738
I760
sVit
p739
I890
sVleague
p740
I851
sVfrustrated
p741
I761
sVacross
p742
I762
sVbought
p743
I763
sVwe
p744
I765
sVrosie
p745
I766
sVsapphire
p746
I1195
sVdisagreed
p747
I752
sVjoy
p748
I769
sVsold
p749
I305
sVattention
p750
I771
sVtimmy
p751
I625
sVhowever
p752
I772
sVguitar
p753
I774
sVspared
p754
I775
sVjob
p755
I776
sVjoe
p756
I779
sVnews
p757
I820
sVcondo
p758
I194
sVcome
p759
I784
sVsipped
p760
I785
sVkitchen
p761
I787
sVboth
p762
I10
sVhits
p763
I789
sVfried
p764
I1197
sVlast
p765
I791
sVrevoked
p766
I792
sVlimits
p767
I793
sVrestaurant
p768
I794
sVtaking
p769
I795
sVscreen
p770
I770
sVagainst
p771
I796
sVofficer
p772
I660
sVapril
p773
I798
sVdoorway
p774
I799
sVbecame
p775
I800
sVgames
p776
I801
sVdrugs
p777
I852
sVsafely
p778
I803
sVasked
p779
I804
sVliked
p780
I806
sVvolcanic
p781
I807
sVjeff
p782
I81
sVwall
p783
I809
sVjosh
p784
I810
sVca
p785
I675
sVeach
p786
I1081
sVtheater
p787
I987
sVcommunity
p788
I812
sVwalk
p789
I813
sVdirections
p790
I815
sVlikes
p791
I818
sVlaugh
p792
I819
sVaway
p793
I756
sVtony
p794
I821
sVtable
p795
I822
sVnostalgic
p796
I823
sVpicking
p797
I783
sVboat
p798
I826
sVpatiently
p799
I827
sVpouring
p800
I658
sVhawkins
p801
I829
sVcream
p802
I1219
sVputs
p803
I830
sVpowered
p804
I831
sVwould
p805
I884
sVvacation
p806
I832
sVbeen
p807
I833
sVmark
p808
I323
sVapologize
p809
I1135
sVbeer
p810
I835
sVlured
p811
I991
sVparents
p812
I992
sVentered
p813
I838
sVkneeled
p814
I839
sVtallest
p815
I840
sVtopics
p816
I740
sVwoke
p817
I1194
sVtreatment
p818
I843
sVengine
p819
I156
sVfield
p820
I845
sVmike
p821
I274
sVoverdrafted
p822
I847
sVshopping
p823
I848
sVdeeper
p824
I849
sVrelaxing
p825
I850
sVvinegar
p826
I786
sVfire
p827
I514
sV100
p828
I825
sVfirefighters
p829
I392
sVairplanes
p830
I855
sVelse
p831
I1005
sVdave
p832
I857
sVsubstance
p833
I858
sVchild
p834
I860
sVcatch
p835
I861
sVworked
p836
I22
sVsticky
p837
I863
sVdespite
p838
I862
sVthose
p839
I865
sVpilot
p840
I408
sVhomer
p841
I133
sVhas
p842
I997
sVtank
p843
I869
sVturns
p844
I409
sVthese
p845
I871
sVstarts
p846
I475
sVcan
p847
I239
sVexcited
p848
I999
sVwill
p849
I102
sVwhile
p850
I873
sVmelted
p851
I874
sVteachers
p852
I474
sVpromising
p853
I876
sVnewspaper
p854
I732
sVaid
p855
I878
sVvoice
p856
I879
sVinvited
p857
I880
sVmistake
p858
I881
sVnoticed
p859
I882
sVreverse
p860
I866
sV10000
p861
I885
sVhoping
p862
I886
sVsecret
p863
I1150
sVplayed
p864
I338
sVbest
p865
I747
sVis
p866
I889
sVwalks
p867
I1212
sVcoffee
p868
I778
sVhelped
p869
I891
sVplayer
p870
I892
sVlonely
p871
I375
sVsnuck
p872
I255
sVready
p873
I895
sVpartner
p874
I896
sVbelongings
p875
I897
sVobnoxious
p876
I898
sValone
p877
I899
sVeveryday
p878
I276
sVif
p879
I901
sVgone
p880
I1201
sVdifferent
p881
I903
sVdoctor
p882
I904
sVparish
p883
I328
sVbegan
p884
I333
sVtoaster
p885
I907
sVbowl
p886
I340
sVjerry
p887
I909
sVlava
p888
I348
sVdecor
p889
I911
sV1
p890
I628
sVmake
p891
I906
sVloudly
p892
I913
sVspeaker
p893
I914
sVbuys
p894
I915
sVno
p895
I947
sVparty
p896
I389
sVelliott
p897
I453
sVseveral
p898
I919
sVbunny
p899
I920
sVtomatoes
p900
I921
sVweek
p901
I922
sVhallway
p902
I923
sVused
p903
I424
sVballerina
p904
I925
sVkeys
p905
I926
sVsamantha
p906
I927
sVdrink
p907
I928
sVupon
p908
I469
sVrain
p909
I930
sVsauna
p910
I193
sVproducers
p911
I932
sVpopcorn
p912
I933
sVrunning
p913
I814
sVmoving
p914
I485
sVkim
p915
I936
sVbarged
p916
I938
sVopportunity
p917
I939
sVlobby
p918
I940
sVeverywhere
p919
I1274
sVpull
p920
I1183
sVcomplained
p921
I941
sVearly
p922
I942
sVshortly
p923
I452
sVband
p924
I944
sVi
p925
I945
sVwhole
p926
I946
sVingredients
p927
I126
sVwell
p928
I948
sVunpacked
p929
I284
sVfighting
p930
I950
sVgrind
p931
I589
sVsports
p932
I802
sVedge
p933
I605
sVrelief
p934
I954
sVmother
p935
I1058
sVkelly
p936
I956
sVgift
p937
I1024
sVthe
p938
I957
sVaudio
p939
I638
sVspend
p940
I959
sVcharged
p941
I650
sVthings
p942
I961
sVsoaked
p943
I962
sVcarrie
p944
I963
sVfrankie
p945
I964
sVquoted
p946
I684
sVbeing
p947
I966
sVable
p948
I666
sVshivering
p949
I968
sVhalf
p950
I969
sVsleepy
p951
I970
sVunfair
p952
I1139
sVepcot
p953
I219
sVfoot
p954
I974
sVfarther
p955
I731
sVquestions
p956
I976
sVhauled
p957
I739
sVrest
p958
I972
sVcouch
p959
I978
sVwandered
p960
I603
sVcut
p961
I777
sVdipped
p962
I782
sV$
p963
I971
sVgrounded
p964
I982
sVauditions
p965
I459
sVproducts
p966
I984
sVpoint
p967
I248
sVsky
p968
I176
sVlake
p969
I44
sVknew
p970
I1077
sVkilled
p971
I842
sVinstrument
p972
I989
sVlouisa
p973
I990
sVtrampled
p974
I836
sVaffinity
p975
I837
sVastonishment
p976
I745
sVcrying
p977
I994
sVsave
p978
I868
sVski
p979
I998
sVpot
p980
I811
sVnate
p981
I196
sVapplauded
p982
I607
sVcustomers
p983
I1002
sVmovie
p984
I755
sVaround
p985
I1003
sVdriver
p986
I864
sVbig
p987
I1004
sVonline
p988
I609
sVsharpener
p989
I931
sVscrawny
p990
I1008
sVdark
p991
I937
sVboxes
p992
I216
sVfive
p993
I1011
sVknow
p994
I1012
sVmom
p995
I1013
sVusing
p996
I1014
sVbit
p997
I1015
sVstepped
p998
I918
sVburnt
p999
I1017
sVyou
p1000
I1235
sVdreams
p1001
I1019
sVstylist
p1002
I1020
sVquickly
p1003
I1138
sVtrash
p1004
I1021
sVinstead
p1005
I1022
sVsuccess
p1006
I478
sVlost
p1007
I321
sVtryouts
p1008
I228
sVlily
p1009
I1026
sVring
p1010
I900
sVpounds
p1011
I1025
sVfishing
p1012
I975
sV50
p1013
I1030
sVcandy
p1014
I1031
sVtwas
p1015
I506
sVsternly
p1016
I1032
sVown
p1017
I1123
sVeither
p1018
I286
sValways
p1019
I400
sVpopular
p1020
I1035
sVnerves
p1021
I648
sVnice
p1022
I1238
sVwhy
p1023
I1246
sVshed
p1024
I1037
sVright
p1025
I767
sVold
p1026
I1039
sVpeople
p1027
I1040
sVtells
p1028
I1041
sVamy
p1029
I1009
sVscared
p1030
I1042
sVmowers
p1031
I1043
sVarrived
p1032
I935
sVback
p1033
I1045
sVdead
p1034
I1046
sVcalling
p1035
I780
sVhair
p1036
I1048
sVunderstood
p1037
I1049
sVranking
p1038
I1050
sVsure
p1039
I1051
sVescape
p1040
I1053
sVsusie
p1041
I824
sVpeter
p1042
I1056
sVjoan
p1043
I1057
sVpeace
p1044
I1225
sVdeaf
p1045
I1168
sVfor
p1046
I1059
sVplants
p1047
I1060
sVpet
p1048
I1061
sVthanksgiving
p1049
I446
sVmicrowave
p1050
I16
sVseller
p1051
I1065
sVreligion
p1052
I996
sVasking
p1053
I1067
sVsummoned
p1054
I1068
sVdrunk
p1055
I985
sVpee
p1056
I1070
sVdating
p1057
I66
sVchristmas
p1058
I1072
sV?
p1059
I737
sVbetty
p1060
I423
sVcalmed
p1061
I1075
sVbe
p1062
I1076
sVnoise
p1063
I92
sVeating
p1064
I97
sVsadie
p1065
I108
sV300
p1066
I113
sVnight
p1067
I1034
sVstrained
p1068
I1082
sVbathroom
p1069
I1083
sVforming
p1070
I1084
sVrefused
p1071
I1085
sVhunt
p1072
I1028
sVdiscount
p1073
I150
sVchanting
p1074
I1087
sVpretended
p1075
I1248
sValthough
p1076
I1089
sVvolcano
p1077
I683
sVpasta
p1078
I208
sVlottery
p1079
I1092
sVsuper
p1080
I1093
sVby
p1081
I1094
sVhiding
p1082
I1095
sVgained
p1083
I201
sVon
p1084
I1097
sVabout
p1085
I209
sVgifts
p1086
I1250
sVyelling
p1087
I222
sVeat
p1088
I689
sVstylish
p1089
I1101
sVcoworker
p1090
I706
sVof
p1091
I1103
sVdollars
p1092
I245
sVmonths
p1093
I1105
sVyear
p1094
I1052
sVpracticed
p1095
I1107
sVoatmeal
p1096
I1108
sVside
p1097
I1109
sVcraigslist
p1098
I912
sVdinner
p1099
I1110
sV'd
p1100
I1252
sVafternoon
p1101
I1112
sVneighbor
p1102
I1113
sVthrew
p1103
I1114
sVmixed
p1104
I1115
sVshiny
p1105
I1116
sVother
p1106
I1230
sVroad
p1107
I1118
sVswimming
p1108
I331
sVamber
p1109
I246
sVseeing
p1110
I1121
sVwidowed
p1111
I1122
sVjimmy
p1112
I346
sVowe
p1113
I1124
sVmaxwell
p1114
I1125
sVinto
p1115
I1126
sVwithin
p1116
I1127
sVtelling
p1117
I674
sVblessed
p1118
I1129
sVtwo
p1119
I188
sVstop
p1120
I883
sVbecause
p1121
I1038
sVresponds
p1122
I1133
sVhomeless
p1123
I1134
sVgary
p1124
I33
sVfacials
p1125
I1136
sVlesson
p1126
I1137
sVcafeteria
p1127
I438
sVhang
p1128
I929
sVcontest
p1129
I1223
sVsunglasses
p1130
I701
sVbehind
p1131
I977
sVbeth
p1132
I632
sVsad
p1133
I1143
sVweight
p1134
I1142
sVher
p1135
I1145
sVrushed
p1136
I477
sVamazingly
p1137
I484
sVvegetables
p1138
I1148
sVtennis
p1139
I247
sVhal
p1140
I980
sVlong
p1141
I504
sVfight
p1142
I764
sVgig
p1143
I1153
sVstart
p1144
I688
sVboard
p1145
I993
sVvirgil
p1146
I1155
sVpool
p1147
I1259
sVway
p1148
I537
sVjane
p1149
I1158
sVmusic
p1150
I1159
sVgrew
p1151
I555
sVwas
p1152
I1160
sVwar
p1153
I1161
sVhappy
p1154
I1162
sVjoanie
p1155
I1163
sVconfessing
p1156
I1164
sVhead
p1157
I1165
sVmedium
p1158
I584
sVan
p1159
I1207
sVinvite
p1160
I1167
sVpreschoolers
p1161
I298
sVbecoming
p1162
I614
sVbite
p1163
I1170
sVextended
p1164
I1055
sVrained
p1165
I1217
sVheat
p1166
I1172
sVproperly
p1167
I1173
sVgame
p1168
I1010
sVhopes
p1169
I1176
sVmice
p1170
I171
sVwith
p1171
I1178
sVbug
p1172
I640
sVbuying
p1173
I692
sVposted
p1174
I694
sVlifeguard
p1175
I1182
sValso
p1176
I604
sVmade
p1177
I1184
sVrejection
p1178
I1185
sVcalls
p1179
I1265
sVinside
p1180
I1187
sVsocialize
p1181
I1188
sVflip
p1182
I741
sVsigned
p1183
I1190
sVerica
p1184
I746
sVexcitement
p1185
I1063
sVtaught
p1186
I1193
sVhand
p1187
I781
sV.
p1188
I834
sVcake
p1189
I1196
sVagain
p1190
I1220
sVgrass
p1191
I790
sVminutes
p1192
I1198
sVcalled
p1193
I797
sVdiner
p1194
I1099
sVprayed
p1195
I395
sVtaylor
p1196
I816
sVup
p1197
I1189
sVreceived
p1198
I788
sVtyrese
p1199
I635
sVlife
p1200
I846
sVdeep
p1201
I1206
sVpig
p1202
I289
sVas
p1203
I1208
sVlived
p1204
I1209
sVevening
p1205
I893
sVbogart
p1206
I916
sVdrinks
p1207
I612
sVsome
p1208
I1044
sVwatched
p1209
I1214
sVship
p1210
I1215
sVmatch
p1211
I1119
sVjenna
p1212
I1102
sVfill
p1213
I888
sVfantasized
p1214
I917
sVrainy
p1215
I1221
sVsugar
p1216
I1224
sVfloor
p1217
I304
sVdeserve
p1218
I955
sVrelax
p1219
I396
sVwater
p1220
I306
sVgreen
p1221
I611
sVthinking
p1222
I1227
sVtim
p1223
I529
sVparlor
p1224
I1036
sVbook
p1225
I1117
sVsandy
p1226
I716
sVsick
p1227
I1175
sVsplitscreen
p1228
I1233
sVtest
p1229
I1234
sVfools
p1230
I1018
sVreally
p1231
I902
sVoffered
p1232
I854
sV10
p1233
I553
sVscored
p1234
I1239
sVarea
p1235
I1240
sVtrip
p1236
I1218
sVmusician
p1237
I207
sV's
p1238
I1241
sVtotes
p1239
I1242
sVobsessed
p1240
I1243
sVgetting
p1241
I1244
sVshredded
p1242
I1069
sVclass
p1243
I1152
sVfelt
p1244
I12
sVdiet
p1245
I1088
sVmuch
p1246
I1249
sVhelping
p1247
I668
sVtown
p1248
I1251
sVfell
p1249
I1111
sVtrouble
p1250
I1253
sVsmelling
p1251
I567
sVacted
p1252
I1255
sVscore
p1253
I1256
sVfriends
p1254
I1257
sVsides
p1255
I330
sVdied
p1256
I1156
sVmissed
p1257
I1260
sVbooked
p1258
I1262
sVnatalie
p1259
I1263
sVlonger
p1260
I399
sVshannon
p1261
I1180
sVwife
p1262
I1266
sVhome
p1263
I1054
sVmoved
p1264
I1267
sVdog
p1265
I645
sVyoutube
p1266
I1268
sVryder
p1267
I1269
sVtogether
p1268
I1222
sVpresenting
p1269
I1271
sVsearched
p1270
I1247
sValright
p1271
I533
sVfresh
p1272
I1254
sVsurprised
p1273
I1000
sVat
p1274
I1211
sVsounded
p1275
I1275
sVonce
p1276
I1276
s.