(dp0
Vall
p1
I2
sVgo
p2
I3
sVkate
p3
I4
sVto
p4
I5
sVfinally
p5
I6
sVsent
p6
I7
sVcustomer
p7
I65
sVwoman
p8
I9
sVreturned
p9
I10
sVoutside
p10
I11
sVvery
p11
I12
sVhorror
p12
I13
sVdetention
p13
I14
sVvegas
p14
I15
sVfall
p15
I16
sVstabbed
p16
I17
sVschool
p17
I18
sVdid
p18
I19
sVjamie
p19
I20
sVlarge
p20
I21
sVrace
p21
I22
sVguy
p22
I23
sVsign
p23
I24
sVsecond
p24
I25
sVcost
p25
I26
sVpicked
p26
I27
sVstood
p27
I28
sVwhile
p28
I279
sVsweaty
p29
I30
sVgoes
p30
I31
sVnew
p31
I32
sVpublic
p32
I33
sVtold
p33
I34
sVfuneral
p34
I35
sVnever
p35
I36
sVstared
p36
I37
sValone
p37
I38
sVhealthy
p38
I39
sVtaped
p39
I40
sVdiagnosed
p40
I41
sVraccoon
p41
I42
sVjanice
p42
I296
sVlove
p43
I308
sVfamily
p44
I45
sVwin
p45
I46
sVbrought
p46
I47
sVstanding
p47
I48
sVfrom
p48
I49
sVwould
p49
I50
sVarmy
p50
I51
sVwiped
p51
I52
sVnext
p52
I53
sVfew
p53
I54
sVuntil
p54
I57
sVtoday
p55
I58
sVstarted
p56
I59
sVmusician
p57
I60
sVsurprisingly
p58
I61
sVtrain
p59
I62
sVbroke
p60
I63
sVglad
p61
I64
sVme
p62
I8
sVroom
p63
I66
sVhour
p64
I67
sVarmpits
p65
I68
sVthis
p66
I69
sVcar
p67
I70
sVathlete
p68
I71
sVmovies
p69
I72
sVmall
p70
I73
sVcan
p71
I74
sVmy
p72
I75
sVheart
p73
I76
sVprocess
p74
I77
sVchip
p75
I78
sVhigh
p76
I79
sVdropped
p77
I80
sVallowed
p78
I81
sVclothing
p79
I82
sVplans
p80
I85
sV1
p81
I83
sVhot
p82
I84
sVtried
p83
I137
sVafter
p84
I140
sVwrist
p85
I87
sVmad
p86
I88
sVtaco
p87
I158
sVman
p88
I122
sVclassroom
p89
I171
sVgreen
p90
I199
sVenter
p91
I93
sVspat
p92
I367
sVmexican
p93
I94
sVhelp
p94
I95
sVdeveloped
p95
I96
sVpointed
p96
I97
sVwishing
p97
I98
sVended
p98
I99
sVthrough
p99
I100
sVtrouble
p100
I101
sVbefore
p101
I102
sVfit
p102
I103
sV,
p103
I104
sVactually
p104
I105
sVmaia
p105
I106
sVorange
p106
I107
sVweeks
p107
I108
sVsoccer
p108
I109
sVdad
p109
I110
sVeventually
p110
I281
sVthem
p111
I112
sVskipped
p112
I284
sVremission
p113
I114
sVfood
p114
I115
sVbreak
p115
I116
sVthey
p116
I117
sVnot
p117
I118
sVrealize
p118
I119
sVgets
p119
I120
sValways
p120
I121
sVfound
p121
I123
sVwent
p122
I124
sVglasses
p123
I126
sVheavy
p124
I127
sVeveryone
p125
I128
sVdoing
p126
I129
sVhouse
p127
I130
sVsquishy
p128
I131
sVgirl
p129
I132
sVout
p130
I125
sVleave
p131
I134
sVmedications
p132
I135
sVopened
p133
I136
sVwalked
p134
I407
sVgot
p135
I138
sVhighway
p136
I139
sVearlier
p137
I86
sVapproaches
p138
I141
sVcarl
p139
I142
sVwanted
p140
I143
sVcard
p141
I144
sVcare
p142
I145
sVate
p143
I146
sVshelves
p144
I147
sVstarts
p145
I148
sVcould
p146
I149
sVdavid
p147
I150
sVamerican
p148
I151
sVplace
p149
I152
sVstar
p150
I399
sVthink
p151
I153
sVwaited
p152
I154
sVfirst
p153
I155
sValready
p154
I156
sVfeel
p155
I157
sVcoming
p156
I89
sVone
p157
I159
sVwash
p158
I160
sVanother
p159
I161
sVowner
p160
I162
sV<UNK>
p161
I1
sVanyone
p162
I164
sVtheir
p163
I165
sVattack
p164
I166
sVtwenties
p165
I228
sVtoo
p166
I168
sVlegs
p167
I179
sVstore
p168
I170
sVa
p169
I91
sVthat
p170
I172
sVrelieved
p171
I173
sVnobody
p172
I174
sVtook
p173
I175
sVconvinced
p174
I176
sVloved
p175
I177
sVtelevision
p176
I178
sVperfectly
p177
I169
sVunfortunately
p178
I180
sVtree
p179
I181
sVfriend
p180
I182
sVwere
p181
I183
sVvisited
p182
I184
sVfeeling
p183
I185
sVand
p184
I186
sVrag
p185
I187
sVsam
p186
I188
sVran
p187
I189
sVcraig
p188
I190
sVturned
p189
I191
sVtastes
p190
I192
sVsat
p191
I193
sVsell
p192
I194
sVable
p193
I195
sVchest
p194
I196
sVdoors
p195
I197
sVlaughed
p196
I319
sVso
p197
I92
sVtowards
p198
I334
sVpain
p199
I201
sVtrack
p200
I337
sVprice
p201
I203
sVknew
p202
I204
sVfalls
p203
I205
sVpair
p204
I206
sVclass
p205
I207
sVsale
p206
I208
sVlooked
p207
I209
sVclean
p208
I210
sVshop
p209
I211
sVrecipe
p210
I212
sVprincipal
p211
I213
sVsnack
p212
I214
sV3
p213
I215
sVonly
p214
I216
sVrich
p215
I217
sVrice
p216
I218
sVlocal
p217
I219
sVhis
p218
I220
sVhit
p219
I221
sVget
p220
I222
sVwatch
p221
I223
sVfeels
p222
I224
sVones
p223
I225
sVcompetitive
p224
I307
sVdespite
p225
I227
sV2
p226
I167
sVchips
p227
I229
sVhim
p228
I230
sVmarried
p229
I231
sVbag
p230
I232
sVbad
p231
I233
sVstuff
p232
I234
sVshe
p233
I235
sVsteak
p234
I236
sVswept
p235
I237
sVthrowing
p236
I238
sVseat
p237
I239
sVresist
p238
I240
sVsee
p239
I241
sVdecided
p240
I242
sVcollege
p241
I243
sVclose
p242
I244
sVknees
p243
I245
sVsaid
p244
I246
sVlots
p245
I247
sVmovie
p246
I248
sVaway
p247
I249
sVbehind
p248
I250
sVwon
p249
I251
sVbought
p250
I252
sVmen
p251
I253
sVsold
p252
I254
sVnightmares
p253
I255
sVcome
p254
I256
sVbrat
p255
I257
sVagainst
p256
I258
sVhated
p257
I310
sVasked
p258
I260
sVliked
p259
I261
sVafterwards
p260
I262
sVcancer
p261
I263
sVheaded
p262
I264
sVinsist
p263
I265
sVtons
p264
I266
sVbathroom
p265
I267
sVdue
p266
I268
sVdug
p267
I269
sVcared
p268
I270
sVmuch
p269
I271
sVlas
p270
I90
sVentered
p271
I272
sVempty
p272
I273
sVthrew
p273
I274
sVwants
p274
I301
sVlife
p275
I276
sVlives
p276
I277
sVn't
p277
I278
sVnear
p278
I29
sVhoping
p279
I280
sVthen
p280
I111
sVis
p281
I282
sVit
p282
I283
sVevening
p283
I113
sVclosets
p284
I285
sVin
p285
I286
sVdisappear
p286
I287
sVgone
p287
I383
sVdifferent
p288
I288
sVthings
p289
I289
sVmember
p290
I290
sVstepped
p291
I291
sVseveral
p292
I292
sVweek
p293
I293
sVuses
p294
I294
sVcleaning
p295
I295
sVweird
p296
I43
sVtheater
p297
I297
sVi
p298
I298
sVspent
p299
I299
sVfighting
p300
I300
sVmother
p301
I302
sVthe
p302
I303
sVoutdoor
p303
I304
sVjust
p304
I305
sVbeing
p305
I306
sVrest
p306
I226
sVfollowed
p307
I44
sVflavor
p308
I309
sVmarrying
p309
I259
sVhad
p310
I311
sVexercising
p311
I312
sVday
p312
I313
sVexcited
p313
I314
sVjake
p314
I315
sVaround
p315
I316
sVbig
p316
I317
sVbreaks
p317
I318
sVonline
p318
I198
sVdark
p319
I320
sVgame
p320
I321
sVtraffic
p321
I322
sVbit
p322
I323
sVclan
p323
I324
sVtrash
p324
I398
sVnose
p325
I325
sVnight
p326
I326
sVheel
p327
I327
sVright
p328
I328
sVold
p329
I329
sVscared
p330
I330
sVsome
p331
I331
sVback
p332
I332
sVcompetition
p333
I333
sVsure
p334
I200
sVhome
p335
I335
sVfor
p336
I336
sVthrilled
p337
I202
sVdoes
p338
I338
sVknife
p339
I339
sVwho
p340
I340
sVeating
p341
I341
sVschedule
p342
I342
sVrug
p343
I343
sVbroken
p344
I344
sVstep
p345
I345
sVon
p346
I346
sVabout
p347
I347
sVworking
p348
I348
sVgetting
p349
I349
sVof
p350
I350
sVmonths
p351
I351
sVhospital
p352
I352
sVroad
p353
I353
sVgarbage
p354
I354
sVinto
p355
I355
sVrecreate
p356
I356
sVdown
p357
I357
sVbecause
p358
I358
sV.
p359
I359
sVher
p360
I360
sVthere
p361
I361
sVfight
p362
I362
sVstuck
p363
I363
sVlot
p364
I364
sVjane
p365
I365
sVwas
p366
I366
sVassumes
p367
I55
sVhead
p368
I368
sVenough
p369
I369
sVbut
p370
I370
sVline
p371
I371
sVtrying
p372
I372
sVwith
p373
I373
sVeat
p374
I374
sVhe
p375
I375
sVmade
p376
I376
sVrage
p377
I377
sVinside
p378
I378
sVdrills
p379
I379
sVup
p380
I380
sVruined
p381
I381
sVgrass
p382
I382
sVslips
p383
I275
sVfans
p384
I384
sVyear
p385
I385
sVam
p386
I386
sVan
p387
I387
sVas
p388
I388
sVat
p389
I389
sVgirlfriend
p390
I390
sVwatched
p391
I391
sVmoves
p392
I392
sVdealer
p393
I393
sVno
p394
I394
sVwhen
p395
I395
sVclub
p396
I396
sVother
p397
I397
sVreally
p398
I133
sV's
p399
I56
sVstudents
p400
I400
sVdiet
p401
I401
sVchance
p402
I402
sVfell
p403
I403
sVfriends
p404
I404
sVcalls
p405
I405
sVwife
p406
I406
sVtogether
p407
I163
sVtime
p408
I408
sVsongs
p409
I412
sVstarting
p410
I410
sVhaving
p411
I411
sVonce
p412
I409
s.